; Function Attrs: nounwind uwtable
define dso_local ptr @brinbulkdelete(ptr readnone captures(none) %0, ptr noundef readnone captures(address_is_null, ret: address, provenance) %1, ptr readnone captures(none) %2, ptr readnone captures(none) %3) #0 {
  %5 = icmp eq ptr %1, null
  br i1 %5, label %6, label %8

6:                                                ; preds = %4
  %7 = tail call ptr @palloc0(i64 noundef 40) #10
  br label %8

8:                                                ; preds = %6, %4
  %.0 = phi ptr [ %7, %6 ], [ %1, %4 ]
  ret ptr %.0
}